target datalayout = "e-m:e-p270:32:32-p271:32:32-p272:64:64-i64:64-i128:128-f80:128-n8:16:32:64-S128"
target triple = "x86_64-pc-linux-gnu"

%struct.expert_field = type { i32, i32 }

@hf_nfapi_length = internal global i32 0, align 4
@hf_nfapi_ul_cqi = internal global i32 0, align 4
@hf_nfapi_data_offset = internal global i32 0, align 4
@hf_nfapi_ri = internal global i32 0, align 4
@hf_nfapi_timing_advance = internal global i32 0, align 4
@ei_invalid_range = internal global %struct.expert_field zeroinitializer, align 4
@.str.2160 = private unnamed_addr constant [37 x i8] c"Invalid timing advance value [0..63]\00", align 1
@.str.2185 = private unnamed_addr constant [24 x i8] c"Invalid ri value [0..8]\00", align 1

; Function Attrs: nounwind uwtable
define internal void @dissect_rx_cqi_indication_rel8_value(ptr noundef %0, ptr noundef %1) #0 {
  %3 = alloca ptr, align 8
  %4 = alloca ptr, align 8
  %5 = alloca ptr, align 8
  %6 = alloca i32, align 4
  store ptr %0, ptr %3, align 8
  store ptr %1, ptr %4, align 8
  %7 = load ptr, ptr %3, align 8
  %8 = load i32, ptr @hf_nfapi_length, align 4
  %9 = call ptr @ptvcursor_add(ptr noundef %7, i32 noundef %8, i32 noundef 2, i32 noundef 0)
  %10 = load ptr, ptr %3, align 8
  %11 = load i32, ptr @hf_nfapi_data_offset, align 4
  %12 = call ptr @ptvcursor_add(ptr noundef %10, i32 noundef %11, i32 noundef 2, i32 noundef 0)
  %13 = load ptr, ptr %3, align 8
  %14 = load i32, ptr @hf_nfapi_ul_cqi, align 4
  %15 = call ptr @ptvcursor_add(ptr noundef %13, i32 noundef %14, i32 noundef 1, i32 noundef 0)
  %16 = load ptr, ptr %3, align 8
  %17 = load i32, ptr @hf_nfapi_ri, align 4
  %18 = call ptr @ptvcursor_add_ret_uint(ptr noundef %16, i32 noundef %17, i32 noundef 1, i32 noundef 0, ptr noundef %6)
  store ptr %18, ptr %5, align 8
  %19 = load i32, ptr %6, align 4
  %20 = icmp ugt i32 %19, 8
  br i1 %20, label %21, label %25

21:                                               ; preds = %2
  %22 = load ptr, ptr %4, align 8
  %23 = load ptr, ptr %5, align 8
  %24 = call ptr (ptr, ptr, ptr, ptr, ...) @expert_add_info_format(ptr noundef %22, ptr noundef %23, ptr noundef @ei_invalid_range, ptr noundef @.str.2185)
  br label %25

25:                                               ; preds = %21, %2
  %26 = load ptr, ptr %3, align 8
  %27 = load i32, ptr @hf_nfapi_timing_advance, align 4
  %28 = call ptr @ptvcursor_add_ret_uint(ptr noundef %26, i32 noundef %27, i32 noundef 2, i32 noundef 0, ptr noundef %6)
  store ptr %28, ptr %5, align 8
  %29 = load i32, ptr %6, align 4
  %30 = icmp ugt i32 %29, 63
  br i1 %30, label %31, label %35

31:                                               ; preds = %25
  %32 = load ptr, ptr %4, align 8
  %33 = load ptr, ptr %5, align 8
  %34 = call ptr (ptr, ptr, ptr, ptr, ...) @expert_add_info_format(ptr noundef %32, ptr noundef %33, ptr noundef @ei_invalid_range, ptr noundef @.str.2160)
  br label %35

35:                                               ; preds = %31, %25
  ret void
}