; Function Attrs: nounwind uwtable
define internal void @dissect_rx_cqi_indication_rel8_value(ptr noundef %0, ptr noundef %1) #0 {
  %3 = alloca i32, align 4
  %4 = load i32, ptr @hf_nfapi_length, align 4
  %5 = tail call ptr @ptvcursor_add(ptr noundef %0, i32 noundef %4, i32 noundef 2, i32 noundef 0) #7
  %6 = load i32, ptr @hf_nfapi_data_offset, align 4
  %7 = tail call ptr @ptvcursor_add(ptr noundef %0, i32 noundef %6, i32 noundef 2, i32 noundef 0) #7
  %8 = load i32, ptr @hf_nfapi_ul_cqi, align 4
  %9 = tail call ptr @ptvcursor_add(ptr noundef %0, i32 noundef %8, i32 noundef 1, i32 noundef 0) #7
  %10 = load i32, ptr @hf_nfapi_ri, align 4
  %11 = call ptr @ptvcursor_add_ret_uint(ptr noundef %0, i32 noundef %10, i32 noundef 1, i32 noundef 0, ptr noundef nonnull %3) #7
  %12 = load i32, ptr %3, align 4
  %13 = icmp ugt i32 %12, 8
  br i1 %13, label %14, label %16

14:                                               ; preds = %2
  %15 = call ptr (ptr, ptr, ptr, ptr, ...) @expert_add_info_format(ptr noundef %1, ptr noundef %11, ptr noundef nonnull @ei_invalid_range, ptr noundef nonnull @.str.2185) #7
  br label %16

16:                                               ; preds = %14, %2
  %17 = load i32, ptr @hf_nfapi_timing_advance, align 4
  %18 = call ptr @ptvcursor_add_ret_uint(ptr noundef %0, i32 noundef %17, i32 noundef 2, i32 noundef 0, ptr noundef nonnull %3) #7
  %19 = load i32, ptr %3, align 4
  %20 = icmp ugt i32 %19, 63
  br i1 %20, label %21, label %23

21:                                               ; preds = %16
  %22 = call ptr (ptr, ptr, ptr, ptr, ...) @expert_add_info_format(ptr noundef %1, ptr noundef %18, ptr noundef nonnull @ei_invalid_range, ptr noundef nonnull @.str.2160) #7
  br label %23

23:                                               ; preds = %21, %16
  ret void
}